target datalayout = "e-m:e-p270:32:32-p271:32:32-p272:64:64-i64:64-i128:128-f80:128-n8:16:32:64-S128"
target triple = "x86_64-pc-linux-gnu"

%struct.anon = type { [3 x double], double }
%struct._generic_N_Vector = type { ptr, ptr, ptr }
%struct._N_VectorContent_Serial = type { i64, i32, ptr }

; Function Attrs: nounwind uwtable
define internal i32 @res(double noundef %0, ptr noundef %1, ptr noundef %2, ptr noundef %3, ptr noundef %4) #0 {
  %6 = alloca double, align 8
  %7 = alloca ptr, align 8
  %8 = alloca ptr, align 8
  %9 = alloca ptr, align 8
  %10 = alloca ptr, align 8
  %11 = alloca ptr, align 8
  %12 = alloca double, align 8
  %13 = alloca double, align 8
  %14 = alloca double, align 8
  %15 = alloca double, align 8
  %16 = alloca double, align 8
  %17 = alloca double, align 8
  %18 = alloca double, align 8
  %19 = alloca double, align 8
  store double %0, ptr %6, align 8, !tbaa !20
  store ptr %1, ptr %7, align 8, !tbaa !16
  store ptr %2, ptr %8, align 8, !tbaa !16
  store ptr %3, ptr %9, align 8, !tbaa !16
  store ptr %4, ptr %10, align 8, !tbaa !11
  call void @llvm.lifetime.start.p0(i64 8, ptr %11) #8
  call void @llvm.lifetime.start.p0(i64 8, ptr %12) #8
  call void @llvm.lifetime.start.p0(i64 8, ptr %13) #8
  call void @llvm.lifetime.start.p0(i64 8, ptr %14) #8
  call void @llvm.lifetime.start.p0(i64 8, ptr %15) #8
  call void @llvm.lifetime.start.p0(i64 8, ptr %16) #8
  call void @llvm.lifetime.start.p0(i64 8, ptr %17) #8
  call void @llvm.lifetime.start.p0(i64 8, ptr %18) #8
  call void @llvm.lifetime.start.p0(i64 8, ptr %19) #8
  %20 = load ptr, ptr %10, align 8, !tbaa !11
  store ptr %20, ptr %11, align 8, !tbaa !11
  %21 = load ptr, ptr %11, align 8, !tbaa !11
  %22 = getelementptr inbounds nuw %struct.anon, ptr %21, i32 0, i32 0
  %23 = getelementptr inbounds [3 x double], ptr %22, i64 0, i64 0
  %24 = load double, ptr %23, align 8, !tbaa !20
  store double %24, ptr %12, align 8, !tbaa !20
  %25 = load ptr, ptr %11, align 8, !tbaa !11
  %26 = getelementptr inbounds nuw %struct.anon, ptr %25, i32 0, i32 0
  %27 = getelementptr inbounds [3 x double], ptr %26, i64 0, i64 1
  %28 = load double, ptr %27, align 8, !tbaa !20
  store double %28, ptr %13, align 8, !tbaa !20
  %29 = load ptr, ptr %11, align 8, !tbaa !11
  %30 = getelementptr inbounds nuw %struct.anon, ptr %29, i32 0, i32 0
  %31 = getelementptr inbounds [3 x double], ptr %30, i64 0, i64 2
  %32 = load double, ptr %31, align 8, !tbaa !20
  store double %32, ptr %14, align 8, !tbaa !20
  %33 = load ptr, ptr %7, align 8, !tbaa !16
  %34 = getelementptr inbounds nuw %struct._generic_N_Vector, ptr %33, i32 0, i32 0
  %35 = load ptr, ptr %34, align 8, !tbaa !26
  %36 = getelementptr inbounds nuw %struct._N_VectorContent_Serial, ptr %35, i32 0, i32 2
  %37 = load ptr, ptr %36, align 8, !tbaa !29
  %38 = getelementptr inbounds double, ptr %37, i64 0
  %39 = load double, ptr %38, align 8, !tbaa !20
  store double %39, ptr %15, align 8, !tbaa !20
  %40 = load ptr, ptr %7, align 8, !tbaa !16
  %41 = getelementptr inbounds nuw %struct._generic_N_Vector, ptr %40, i32 0, i32 0
  %42 = load ptr, ptr %41, align 8, !tbaa !26
  %43 = getelementptr inbounds nuw %struct._N_VectorContent_Serial, ptr %42, i32 0, i32 2
  %44 = load ptr, ptr %43, align 8, !tbaa !29
  %45 = getelementptr inbounds double, ptr %44, i64 1
  %46 = load double, ptr %45, align 8, !tbaa !20
  store double %46, ptr %16, align 8, !tbaa !20
  %47 = load ptr, ptr %7, align 8, !tbaa !16
  %48 = getelementptr inbounds nuw %struct._generic_N_Vector, ptr %47, i32 0, i32 0
  %49 = load ptr, ptr %48, align 8, !tbaa !26
  %50 = getelementptr inbounds nuw %struct._N_VectorContent_Serial, ptr %49, i32 0, i32 2
  %51 = load ptr, ptr %50, align 8, !tbaa !29
  %52 = getelementptr inbounds double, ptr %51, i64 2
  %53 = load double, ptr %52, align 8, !tbaa !20
  store double %53, ptr %17, align 8, !tbaa !20
  %54 = load ptr, ptr %8, align 8, !tbaa !16
  %55 = getelementptr inbounds nuw %struct._generic_N_Vector, ptr %54, i32 0, i32 0
  %56 = load ptr, ptr %55, align 8, !tbaa !26
  %57 = getelementptr inbounds nuw %struct._N_VectorContent_Serial, ptr %56, i32 0, i32 2
  %58 = load ptr, ptr %57, align 8, !tbaa !29
  %59 = getelementptr inbounds double, ptr %58, i64 0
  %60 = load double, ptr %59, align 8, !tbaa !20
  store double %60, ptr %18, align 8, !tbaa !20
  %61 = load ptr, ptr %8, align 8, !tbaa !16
  %62 = getelementptr inbounds nuw %struct._generic_N_Vector, ptr %61, i32 0, i32 0
  %63 = load ptr, ptr %62, align 8, !tbaa !26
  %64 = getelementptr inbounds nuw %struct._N_VectorContent_Serial, ptr %63, i32 0, i32 2
  %65 = load ptr, ptr %64, align 8, !tbaa !29
  %66 = getelementptr inbounds double, ptr %65, i64 1
  %67 = load double, ptr %66, align 8, !tbaa !20
  store double %67, ptr %19, align 8, !tbaa !20
  %68 = load double, ptr %18, align 8, !tbaa !20
  %69 = load double, ptr %12, align 8, !tbaa !20
  %70 = load double, ptr %15, align 8, !tbaa !20
  %71 = call double @llvm.fmuladd.f64(double %69, double %70, double %68)
  %72 = load double, ptr %13, align 8, !tbaa !20
  %73 = load double, ptr %16, align 8, !tbaa !20
  %74 = fmul double %72, %73
  %75 = load double, ptr %17, align 8, !tbaa !20
  %76 = fneg double %74
  %77 = call double @llvm.fmuladd.f64(double %76, double %75, double %71)
  %78 = load ptr, ptr %9, align 8, !tbaa !16
  %79 = getelementptr inbounds nuw %struct._generic_N_Vector, ptr %78, i32 0, i32 0
  %80 = load ptr, ptr %79, align 8, !tbaa !26
  %81 = getelementptr inbounds nuw %struct._N_VectorContent_Serial, ptr %80, i32 0, i32 2
  %82 = load ptr, ptr %81, align 8, !tbaa !29
  %83 = getelementptr inbounds double, ptr %82, i64 0
  store double %77, ptr %83, align 8, !tbaa !20
  %84 = load double, ptr %19, align 8, !tbaa !20
  %85 = load double, ptr %12, align 8, !tbaa !20
  %86 = load double, ptr %15, align 8, !tbaa !20
  %87 = fneg double %85
  %88 = call double @llvm.fmuladd.f64(double %87, double %86, double %84)
  %89 = load double, ptr %13, align 8, !tbaa !20
  %90 = load double, ptr %16, align 8, !tbaa !20
  %91 = fmul double %89, %90
  %92 = load double, ptr %17, align 8, !tbaa !20
  %93 = call double @llvm.fmuladd.f64(double %91, double %92, double %88)
  %94 = load double, ptr %14, align 8, !tbaa !20
  %95 = load double, ptr %16, align 8, !tbaa !20
  %96 = fmul double %94, %95
  %97 = load double, ptr %16, align 8, !tbaa !20
  %98 = call double @llvm.fmuladd.f64(double %96, double %97, double %93)
  %99 = load ptr, ptr %9, align 8, !tbaa !16
  %100 = getelementptr inbounds nuw %struct._generic_N_Vector, ptr %99, i32 0, i32 0
  %101 = load ptr, ptr %100, align 8, !tbaa !26
  %102 = getelementptr inbounds nuw %struct._N_VectorContent_Serial, ptr %101, i32 0, i32 2
  %103 = load ptr, ptr %102, align 8, !tbaa !29
  %104 = getelementptr inbounds double, ptr %103, i64 1
  store double %98, ptr %104, align 8, !tbaa !20
  %105 = load double, ptr %15, align 8, !tbaa !20
  %106 = load double, ptr %16, align 8, !tbaa !20
  %107 = fadd double %105, %106
  %108 = load double, ptr %17, align 8, !tbaa !20
  %109 = fadd double %107, %108
  %110 = fsub double %109, 1.000000e+00
  %111 = load ptr, ptr %9, align 8, !tbaa !16
  %112 = getelementptr inbounds nuw %struct._generic_N_Vector, ptr %111, i32 0, i32 0
  %113 = load ptr, ptr %112, align 8, !tbaa !26
  %114 = getelementptr inbounds nuw %struct._N_VectorContent_Serial, ptr %113, i32 0, i32 2
  %115 = load ptr, ptr %114, align 8, !tbaa !29
  %116 = getelementptr inbounds double, ptr %115, i64 2
  store double %110, ptr %116, align 8, !tbaa !20
  call void @llvm.lifetime.end.p0(i64 8, ptr %19) #8
  call void @llvm.lifetime.end.p0(i64 8, ptr %18) #8
  call void @llvm.lifetime.end.p0(i64 8, ptr %17) #8
  call void @llvm.lifetime.end.p0(i64 8, ptr %16) #8
  call void @llvm.lifetime.end.p0(i64 8, ptr %15) #8
  call void @llvm.lifetime.end.p0(i64 8, ptr %14) #8
  call void @llvm.lifetime.end.p0(i64 8, ptr %13) #8
  call void @llvm.lifetime.end.p0(i64 8, ptr %12) #8
  call void @llvm.lifetime.end.p0(i64 8, ptr %11) #8
  ret i32 0
}