; Function Attrs: mustprogress nofree norecurse nosync nounwind willreturn memory(readwrite, inaccessiblemem: none) uwtable
define internal noundef i32 @res(double %0, ptr noundef readonly captures(none) %1, ptr noundef readonly captures(none) %2, ptr noundef readonly captures(none) %3, ptr noundef readonly captures(none) %4) #4 {
  %6 = load double, ptr %4, align 8, !tbaa !11
  %7 = getelementptr inbounds nuw i8, ptr %4, i64 8
  %8 = load double, ptr %7, align 8, !tbaa !11
  %9 = getelementptr inbounds nuw i8, ptr %4, i64 16
  %10 = load double, ptr %9, align 8, !tbaa !11
  %11 = load ptr, ptr %1, align 8, !tbaa !17
  %12 = getelementptr inbounds nuw i8, ptr %11, i64 16
  %13 = load ptr, ptr %12, align 8, !tbaa !20
  %14 = load double, ptr %13, align 8, !tbaa !11
  %15 = getelementptr inbounds nuw i8, ptr %13, i64 8
  %16 = load double, ptr %15, align 8, !tbaa !11
  %17 = getelementptr inbounds nuw i8, ptr %13, i64 16
  %18 = load double, ptr %17, align 8, !tbaa !11
  %19 = load ptr, ptr %2, align 8, !tbaa !17
  %20 = getelementptr inbounds nuw i8, ptr %19, i64 16
  %21 = load ptr, ptr %20, align 8, !tbaa !20
  %22 = load double, ptr %21, align 8, !tbaa !11
  %23 = getelementptr inbounds nuw i8, ptr %21, i64 8
  %24 = load double, ptr %23, align 8, !tbaa !11
  %25 = tail call double @llvm.fmuladd.f64(double %6, double %14, double %22)
  %26 = fmul double %8, %16
  %27 = fneg double %26
  %28 = tail call double @llvm.fmuladd.f64(double %27, double %18, double %25)
  %29 = load ptr, ptr %3, align 8, !tbaa !17
  %30 = getelementptr inbounds nuw i8, ptr %29, i64 16
  %31 = load ptr, ptr %30, align 8, !tbaa !20
  store double %28, ptr %31, align 8, !tbaa !11
  %32 = fneg double %6
  %33 = tail call double @llvm.fmuladd.f64(double %32, double %14, double %24)
  %34 = tail call double @llvm.fmuladd.f64(double %26, double %18, double %33)
  %35 = fmul double %10, %16
  %36 = tail call double @llvm.fmuladd.f64(double %35, double %16, double %34)
  %37 = getelementptr inbounds nuw i8, ptr %31, i64 8
  store double %36, ptr %37, align 8, !tbaa !11
  %38 = fadd double %14, %16
  %39 = fadd double %38, %18
  %40 = fadd double %39, -1.000000e+00
  %41 = getelementptr inbounds nuw i8, ptr %31, i64 16
  store double %40, ptr %41, align 8, !tbaa !11
  ret i32 0
}